target datalayout = "e-m:e-p270:32:32-p271:32:32-p272:64:64-i64:64-i128:128-f80:128-n8:16:32:64-S128"
target triple = "x86_64-pc-linux-gnu"

%"class.nanobind::handle" = type { ptr }
%struct.Wrapper = type { %"class.std::shared_ptr" }
%"class.std::shared_ptr" = type { %"class.std::__shared_ptr" }
%"class.std::__shared_ptr" = type { ptr, %"class.std::__shared_count" }
%"class.std::__shared_count" = type { ptr }

; Function Attrs: mustprogress nounwind optsize uwtable
define linkonce_odr void @_ZNSt14__shared_countILN9__gnu_cxx12_Lock_policyE2EE7_M_swapERS2_(ptr noundef nonnull align 8 dereferenceable(8) %0, ptr noundef nonnull align 8 dereferenceable(8) %1) #1 comdat align 2 {
  %3 = alloca ptr, align 8
  %4 = alloca ptr, align 8
  %5 = alloca ptr, align 8
  store ptr %0, ptr %3, align 8, !tbaa !1285
  store ptr %1, ptr %4, align 8, !tbaa !1285
  %6 = load ptr, ptr %3, align 8
  call void @llvm.lifetime.start.p0(i64 8, ptr %5) #2
  %7 = load ptr, ptr %4, align 8, !tbaa !1285
  %8 = getelementptr inbounds nuw %"class.std::__shared_count", ptr %7, i32 0, i32 0
  %9 = load ptr, ptr %8, align 8, !tbaa !1287
  store ptr %9, ptr %5, align 8, !tbaa !106
  %10 = getelementptr inbounds nuw %"class.std::__shared_count", ptr %6, i32 0, i32 0
  %11 = load ptr, ptr %10, align 8, !tbaa !1287
  %12 = load ptr, ptr %4, align 8, !tbaa !1285
  %13 = getelementptr inbounds nuw %"class.std::__shared_count", ptr %12, i32 0, i32 0
  store ptr %11, ptr %13, align 8, !tbaa !1287
  %14 = load ptr, ptr %5, align 8, !tbaa !106
  %15 = getelementptr inbounds nuw %"class.std::__shared_count", ptr %6, i32 0, i32 0
  store ptr %14, ptr %15, align 8, !tbaa !1287
  call void @llvm.lifetime.end.p0(i64 8, ptr %5) #2
  ret void
}

; Function Attrs: inlinehint mustprogress nounwind optsize uwtable
define linkonce_odr hidden void @_ZSt4swapIP7WrapperENSt9enable_ifIXsr6__and_ISt6__not_ISt15__is_tuple_likeIT_EESt21is_move_constructibleIS5_ESt18is_move_assignableIS5_EEE5valueEvE4typeERS5_SE_(ptr noundef nonnull align 8 dereferenceable(8) %0, ptr noundef nonnull align 8 dereferenceable(8) %1) #12 comdat {
  %3 = alloca ptr, align 8
  %4 = alloca ptr, align 8
  %5 = alloca ptr, align 8
  store ptr %0, ptr %3, align 8, !tbaa !1368
  store ptr %1, ptr %4, align 8, !tbaa !1368
  call void @llvm.lifetime.start.p0(i64 8, ptr %5) #2
  %6 = load ptr, ptr %3, align 8, !tbaa !1368
  %7 = load ptr, ptr %6, align 8, !tbaa !24
  store ptr %7, ptr %5, align 8, !tbaa !24
  %8 = load ptr, ptr %4, align 8, !tbaa !1368
  %9 = load ptr, ptr %8, align 8, !tbaa !24
  %10 = load ptr, ptr %3, align 8, !tbaa !1368
  store ptr %9, ptr %10, align 8, !tbaa !24
  %11 = load ptr, ptr %5, align 8, !tbaa !24
  %12 = load ptr, ptr %4, align 8, !tbaa !1368
  store ptr %11, ptr %12, align 8, !tbaa !24
  call void @llvm.lifetime.end.p0(i64 8, ptr %5) #2
  ret void
}

; Function Attrs: mustprogress nounwind optsize uwtable
define linkonce_odr void @_ZNSt14__shared_countILN9__gnu_cxx12_Lock_policyE2EEC2Ev(ptr noundef nonnull align 8 dereferenceable(8) %0) unnamed_addr #1 comdat align 2 {
  %2 = alloca ptr, align 8
  store ptr %0, ptr %2, align 8, !tbaa !1285
  %3 = load ptr, ptr %2, align 8
  %4 = getelementptr inbounds nuw %"class.std::__shared_count", ptr %3, i32 0, i32 0
  store ptr null, ptr %4, align 8, !tbaa !1287
  ret void
}

; Function Attrs: mustprogress nounwind optsize uwtable
define linkonce_odr hidden void @_ZNSt12__shared_ptrI7WrapperLN9__gnu_cxx12_Lock_policyE2EED2Ev(ptr noundef nonnull align 8 dereferenceable(16) %0) unnamed_addr #1 comdat align 2 {
  %2 = alloca ptr, align 8
  store ptr %0, ptr %2, align 8, !tbaa !34
  %3 = load ptr, ptr %2, align 8
  %4 = getelementptr inbounds nuw %"class.std::__shared_ptr", ptr %3, i32 0, i32 1
  call void @_ZNSt14__shared_countILN9__gnu_cxx12_Lock_policyE2EED2Ev(ptr noundef nonnull align 8 dereferenceable(8) %4) #24
  ret void
}

; Function Attrs: mustprogress nounwind optsize uwtable
define linkonce_odr hidden void @_ZNSt12__shared_ptrI7WrapperLN9__gnu_cxx12_Lock_policyE2EE4swapERS3_(ptr noundef nonnull align 8 dereferenceable(16) %0, ptr noundef nonnull align 8 dereferenceable(16) %1) #1 comdat align 2 {
  %3 = alloca ptr, align 8
  %4 = alloca ptr, align 8
  store ptr %0, ptr %3, align 8, !tbaa !34
  store ptr %1, ptr %4, align 8, !tbaa !34
  %5 = load ptr, ptr %3, align 8
  %6 = getelementptr inbounds nuw %"class.std::__shared_ptr", ptr %5, i32 0, i32 0
  %7 = load ptr, ptr %4, align 8, !tbaa !34
  %8 = getelementptr inbounds nuw %"class.std::__shared_ptr", ptr %7, i32 0, i32 0
  call void @_ZSt4swapIP7WrapperENSt9enable_ifIXsr6__and_ISt6__not_ISt15__is_tuple_likeIT_EESt21is_move_constructibleIS5_ESt18is_move_assignableIS5_EEE5valueEvE4typeERS5_SE_(ptr noundef nonnull align 8 dereferenceable(8) %6, ptr noundef nonnull align 8 dereferenceable(8) %8) #24
  %9 = getelementptr inbounds nuw %"class.std::__shared_ptr", ptr %5, i32 0, i32 1
  %10 = load ptr, ptr %4, align 8, !tbaa !34
  %11 = getelementptr inbounds nuw %"class.std::__shared_ptr", ptr %10, i32 0, i32 1
  call void @_ZNSt14__shared_countILN9__gnu_cxx12_Lock_policyE2EE7_M_swapERS2_(ptr noundef nonnull align 8 dereferenceable(8) %9, ptr noundef nonnull align 8 dereferenceable(8) %11) #24
  ret void
}

; Function Attrs: mustprogress nounwind optsize uwtable
define linkonce_odr hidden void @_ZNSt12__shared_ptrI7WrapperLN9__gnu_cxx12_Lock_policyE2EEC2Ev(ptr noundef nonnull align 8 dereferenceable(16) %0) unnamed_addr #1 comdat align 2 {
  %2 = alloca ptr, align 8
  store ptr %0, ptr %2, align 8, !tbaa !34
  %3 = load ptr, ptr %2, align 8
  %4 = getelementptr inbounds nuw %"class.std::__shared_ptr", ptr %3, i32 0, i32 0
  store ptr null, ptr %4, align 8, !tbaa !1282
  %5 = getelementptr inbounds nuw %"class.std::__shared_ptr", ptr %3, i32 0, i32 1
  call void @_ZNSt14__shared_countILN9__gnu_cxx12_Lock_policyE2EEC2Ev(ptr noundef nonnull align 8 dereferenceable(8) %5) #24
  ret void
}

; Function Attrs: alwaysinline mustprogress nounwind optsize uwtable
define linkonce_odr hidden noundef ptr @_ZNK8nanobind6handle3ptrEv(ptr noundef nonnull align 8 dereferenceable(8) %0) #5 comdat align 2 {
  %2 = alloca ptr, align 8
  store ptr %0, ptr %2, align 8, !tbaa !28
  %3 = load ptr, ptr %2, align 8
  %4 = getelementptr inbounds nuw %"class.nanobind::handle", ptr %3, i32 0, i32 0
  %5 = load ptr, ptr %4, align 8, !tbaa !30
  ret ptr %5
}

; Function Attrs: mustprogress nounwind optsize uwtable
define linkonce_odr hidden void @_ZNSt12__shared_ptrI7WrapperLN9__gnu_cxx12_Lock_policyE2EE5resetEv(ptr noundef nonnull align 8 dereferenceable(16) %0) #1 comdat align 2 {
  %2 = alloca ptr, align 8
  %3 = alloca %"class.std::__shared_ptr", align 8
  store ptr %0, ptr %2, align 8, !tbaa !34
  %4 = load ptr, ptr %2, align 8
  call void @llvm.lifetime.start.p0(i64 16, ptr %3) #2
  call void @_ZNSt12__shared_ptrI7WrapperLN9__gnu_cxx12_Lock_policyE2EEC2Ev(ptr noundef nonnull align 8 dereferenceable(16) %3) #24
  call void @_ZNSt12__shared_ptrI7WrapperLN9__gnu_cxx12_Lock_policyE2EE4swapERS3_(ptr noundef nonnull align 8 dereferenceable(16) %3, ptr noundef nonnull align 8 dereferenceable(16) %4) #24
  call void @_ZNSt12__shared_ptrI7WrapperLN9__gnu_cxx12_Lock_policyE2EED2Ev(ptr noundef nonnull align 8 dereferenceable(16) %3) #24
  call void @llvm.lifetime.end.p0(i64 16, ptr %3) #2
  ret void
}

; Function Attrs: mustprogress nounwind optsize uwtable
define linkonce_odr hidden noundef ptr @_ZN8nanobind8inst_ptrI7WrapperEEPT_NS_6handleE(ptr %0) #1 comdat {
  %2 = alloca %"class.nanobind::handle", align 8
  %3 = getelementptr inbounds nuw %"class.nanobind::handle", ptr %2, i32 0, i32 0
  store ptr %0, ptr %3, align 8
  %4 = call noundef ptr @_ZNK8nanobind6handle3ptrEv(ptr noundef nonnull align 8 dereferenceable(8) %2) #25
  %5 = call noundef ptr @_ZN8nanobind6detail11nb_inst_ptrEP7_object(ptr noundef %4) #24
  ret ptr %5
}

; Function Attrs: alwaysinline mustprogress nounwind optsize uwtable
define linkonce_odr hidden void @_ZN8nanobind6handleC2EPK7_object(ptr noundef nonnull align 8 dereferenceable(8) %0, ptr noundef %1) unnamed_addr #5 comdat align 2 {
  %3 = alloca ptr, align 8
  %4 = alloca ptr, align 8
  store ptr %0, ptr %3, align 8, !tbaa !28
  store ptr %1, ptr %4, align 8, !tbaa !21
  %5 = load ptr, ptr %3, align 8
  %6 = getelementptr inbounds nuw %"class.nanobind::handle", ptr %5, i32 0, i32 0
  %7 = load ptr, ptr %4, align 8, !tbaa !21
  store ptr %7, ptr %6, align 8, !tbaa !30
  ret void
}

; Function Attrs: mustprogress optsize uwtable
define hidden noundef i32 @_Z16wrapper_tp_clearP7_object(ptr noundef %0) #3 {
  %2 = alloca ptr, align 8
  %3 = alloca ptr, align 8
  %4 = alloca %"class.nanobind::handle", align 8
  store ptr %0, ptr %2, align 8, !tbaa !21
  call void @llvm.lifetime.start.p0(i64 8, ptr %3) #2
  %5 = load ptr, ptr %2, align 8, !tbaa !21
  call void @_ZN8nanobind6handleC2EPK7_object(ptr noundef nonnull align 8 dereferenceable(8) %4, ptr noundef %5) #25
  %6 = getelementptr inbounds nuw %"class.nanobind::handle", ptr %4, i32 0, i32 0
  %7 = load ptr, ptr %6, align 8
  %8 = call noundef ptr @_ZN8nanobind8inst_ptrI7WrapperEEPT_NS_6handleE(ptr %7) #25
  store ptr %8, ptr %3, align 8, !tbaa !24
  %9 = load ptr, ptr %3, align 8, !tbaa !24
  %10 = getelementptr inbounds nuw %struct.Wrapper, ptr %9, i32 0, i32 0
  call void @_ZNSt12__shared_ptrI7WrapperLN9__gnu_cxx12_Lock_policyE2EE5resetEv(ptr noundef nonnull align 8 dereferenceable(16) %10) #24
  call void @llvm.lifetime.end.p0(i64 8, ptr %3) #2
  ret i32 0
}