; Function Attrs: mustprogress nounwind optsize uwtable
define hidden noundef i32 @_Z16wrapper_tp_clearP7_object(ptr noundef %0) #0 {
  %2 = alloca %"class.std::__shared_ptr", align 8
  %3 = tail call noundef ptr @_ZN8nanobind6detail11nb_inst_ptrEP7_object(ptr noundef %0) #35
  call void @llvm.lifetime.start.p0(i64 16, ptr nonnull %2) #37
  %4 = load ptr, ptr %3, align 8, !tbaa !15
  store ptr %4, ptr %2, align 8, !tbaa !15
  store ptr null, ptr %3, align 8, !tbaa !15
  %5 = getelementptr inbounds nuw i8, ptr %2, i64 8
  %6 = getelementptr inbounds nuw i8, ptr %3, i64 8
  %7 = load ptr, ptr %6, align 8, !tbaa !17
  store ptr null, ptr %6, align 8, !tbaa !17
  store ptr %7, ptr %5, align 8, !tbaa !17
  call void @_ZNSt14__shared_countILN9__gnu_cxx12_Lock_policyE2EED2Ev(ptr noundef nonnull align 8 dereferenceable(8) %5) #35
  call void @llvm.lifetime.end.p0(i64 16, ptr nonnull %2) #37
  ret i32 0
}